; Function Attrs: mustprogress uwtable
define void @_ZN7rocksdb24CompressedSecondaryCache7DeflateEm(ptr noalias sret(%"class.rocksdb::Status") align 8 %agg.result, ptr nocapture noundef nonnull readonly align 8 dereferenceable(217) %this, i64 noundef %decrease) unnamed_addr #0 align 2 {
entry:
  %cache_res_mgr_ = getelementptr inbounds i8, ptr %this, i64 200
  %0 = load ptr, ptr %cache_res_mgr_, align 8
  %vtable = load ptr, ptr %0, align 8
  %vfn = getelementptr inbounds i8, ptr %vtable, i64 24
  %1 = load ptr, ptr %vfn, align 8
  tail call void %1(ptr sret(%"class.rocksdb::Status") align 8 %agg.result, ptr noundef nonnull align 8 dereferenceable(80) %0, i64 noundef %decrease, i1 noundef zeroext true)
  ret void
}